target datalayout = "e-m:e-p270:32:32-p271:32:32-p272:64:64-i64:64-i128:128-f80:128-n8:16:32:64-S128"
target triple = "x86_64-unknown-linux-gnu"

%"class.re2::CharClass" = type <{ i8, [3 x i8], i32, ptr, i32, [4 x i8] }>

; Function Attrs: mustprogress uwtable
define noundef ptr @_ZN3re29CharClass3NewEm(i64 noundef %maxranges) #3 align 2 {
entry:
  %maxranges.addr = alloca i64, align 8
  %cc = alloca ptr, align 8
  %data = alloca ptr, align 8
  store i64 %maxranges, ptr %maxranges.addr, align 8
  %0 = load i64, ptr %maxranges.addr, align 8
  %mul = mul i64 %0, 8
  %add = add i64 24, %mul
  %call = call noalias noundef nonnull ptr @_Znam(i64 noundef %add) #19
  store ptr %call, ptr %data, align 8
  %1 = load ptr, ptr %data, align 8
  store ptr %1, ptr %cc, align 8
  %2 = load ptr, ptr %data, align 8
  %add.ptr = getelementptr inbounds i8, ptr %2, i64 24
  %3 = load ptr, ptr %cc, align 8
  %ranges_ = getelementptr inbounds %"class.re2::CharClass", ptr %3, i32 0, i32 3
  store ptr %add.ptr, ptr %ranges_, align 8
  %4 = load ptr, ptr %cc, align 8
  %nranges_ = getelementptr inbounds %"class.re2::CharClass", ptr %4, i32 0, i32 4
  store i32 0, ptr %nranges_, align 8
  %5 = load ptr, ptr %cc, align 8
  %folds_ascii_ = getelementptr inbounds %"class.re2::CharClass", ptr %5, i32 0, i32 0
  store i8 0, ptr %folds_ascii_, align 8
  %6 = load ptr, ptr %cc, align 8
  %nrunes_ = getelementptr inbounds %"class.re2::CharClass", ptr %6, i32 0, i32 2
  store i32 0, ptr %nrunes_, align 4
  %7 = load ptr, ptr %cc, align 8
  ret ptr %7
}