; Function Attrs: mustprogress uwtable
define noundef nonnull ptr @_ZN3re29CharClass3NewEm(i64 noundef %maxranges) local_unnamed_addr #7 align 2 {
entry:
  %mul = shl i64 %maxranges, 3
  %add = add i64 %mul, 24
  %call = tail call noalias noundef nonnull ptr @_Znam(i64 noundef %add) #29
  %add.ptr = getelementptr inbounds i8, ptr %call, i64 24
  %ranges_ = getelementptr inbounds i8, ptr %call, i64 8
  store ptr %add.ptr, ptr %ranges_, align 8
  %nranges_ = getelementptr inbounds i8, ptr %call, i64 16
  store i32 0, ptr %nranges_, align 8
  store i8 0, ptr %call, align 8
  %nrunes_ = getelementptr inbounds i8, ptr %call, i64 4
  store i32 0, ptr %nrunes_, align 4
  ret ptr %call
}